target datalayout = "e-m:e-p270:32:32-p271:32:32-p272:64:64-i64:64-i128:128-f80:128-n8:16:32:64-S128"
target triple = "x86_64-pc-linux-gnu"

%struct.BuiltinScript = type { ptr, ptr, ptr }

@stderr = external global ptr, align 8
@.str.137 = private unnamed_addr constant [28 x i8] c"Available builtin scripts:\0A\00", align 1
@.str.138 = private unnamed_addr constant [12 x i8] c"  %13s: %s\0A\00", align 1
@builtin_script = internal constant [3 x %struct.BuiltinScript] [%struct.BuiltinScript { ptr @.str.90, ptr @.str.140, ptr @.str.141 }, %struct.BuiltinScript { ptr @.str.74, ptr @.str.142, ptr @.str.143 }, %struct.BuiltinScript { ptr @.str.32, ptr @.str.144, ptr @.str.145 }], align 16
@.str.139 = private unnamed_addr constant [2 x i8] c"\0A\00", align 1

; Function Attrs: nounwind uwtable
define internal void @listAvailableScripts() #0 {
  %1 = alloca i32, align 4
  call void @llvm.lifetime.start.p0(i64 4, ptr %1) #14
  %2 = load ptr, ptr @stderr, align 8
  %3 = call i32 (ptr, ptr, ...) @pg_fprintf(ptr noundef %2, ptr noundef @.str.137)
  store i32 0, ptr %1, align 4
  br label %4

4:                                                ; preds = %21, %0
  %5 = load i32, ptr %1, align 4
  %6 = sext i32 %5 to i64
  %7 = icmp ult i64 %6, 3
  br i1 %7, label %8, label %24

8:                                                ; preds = %4
  %9 = load ptr, ptr @stderr, align 8
  %10 = load i32, ptr %1, align 4
  %11 = sext i32 %10 to i64
  %12 = getelementptr inbounds [3 x %struct.BuiltinScript], ptr @builtin_script, i64 0, i64 %11
  %13 = getelementptr inbounds nuw %struct.BuiltinScript, ptr %12, i32 0, i32 0
  %14 = load ptr, ptr %13, align 8
  %15 = load i32, ptr %1, align 4
  %16 = sext i32 %15 to i64
  %17 = getelementptr inbounds [3 x %struct.BuiltinScript], ptr @builtin_script, i64 0, i64 %16
  %18 = getelementptr inbounds nuw %struct.BuiltinScript, ptr %17, i32 0, i32 1
  %19 = load ptr, ptr %18, align 8
  %20 = call i32 (ptr, ptr, ...) @pg_fprintf(ptr noundef %9, ptr noundef @.str.138, ptr noundef %14, ptr noundef %19)
  br label %21

21:                                               ; preds = %8
  %22 = load i32, ptr %1, align 4
  %23 = add i32 %22, 1
  store i32 %23, ptr %1, align 4
  br label %4, !llvm.loop !26

24:                                               ; preds = %4
  %25 = load ptr, ptr @stderr, align 8
  %26 = call i32 (ptr, ptr, ...) @pg_fprintf(ptr noundef %25, ptr noundef @.str.139)
  call void @llvm.lifetime.end.p0(i64 4, ptr %1) #14
  ret void
}