; Function Attrs: nounwind uwtable
define internal fastcc void @listAvailableScripts() unnamed_addr #0 {
  %1 = load ptr, ptr @stderr, align 8
  %2 = tail call i32 (ptr, ptr, ...) @pg_fprintf(ptr noundef %1, ptr noundef nonnull @.str.137) #25
  br label %3

3:                                                ; preds = %0, %3
  %indvars.iv = phi i64 [ 0, %0 ], [ %indvars.iv.next, %3 ]
  %4 = load ptr, ptr @stderr, align 8
  %5 = getelementptr inbounds nuw [3 x %struct.BuiltinScript], ptr @builtin_script, i64 0, i64 %indvars.iv
  %6 = load ptr, ptr %5, align 8
  %7 = getelementptr inbounds nuw i8, ptr %5, i64 8
  %8 = load ptr, ptr %7, align 8
  %9 = tail call i32 (ptr, ptr, ...) @pg_fprintf(ptr noundef %4, ptr noundef nonnull @.str.138, ptr noundef %6, ptr noundef %8) #25
  %indvars.iv.next = add nuw nsw i64 %indvars.iv, 1
  %exitcond.not = icmp eq i64 %indvars.iv.next, 3
  br i1 %exitcond.not, label %10, label %3, !llvm.loop !34

10:                                               ; preds = %3
  %11 = load ptr, ptr @stderr, align 8
  %12 = tail call i32 (ptr, ptr, ...) @pg_fprintf(ptr noundef %11, ptr noundef nonnull @.str.139) #25
  ret void
}